; ModuleID = 'source-C-CXX/25/1218.c'
source_filename = "source-C-CXX/25/1218.c"
target datalayout = "e-m:e-p270:32:32-p271:32:32-p272:64:64-i64:64-f80:128-n8:16:32:64-S128"
target triple = "x86_64-pc-linux-gnu"

@.str = private unnamed_addr constant [3 x i8] c"%s\00", align 1

; Function Attrs: nounwind sspstrong uwtable
define dso_local i32 @main() local_unnamed_addr #0 {
  %1 = alloca [101 x i8], align 16
  %2 = alloca [101 x i8], align 16
  %3 = getelementptr inbounds [101 x i8], [101 x i8]* %1, i64 0, i64 0
  call void @llvm.lifetime.start.p0i8(i64 101, i8* nonnull %3) #4
  %4 = getelementptr inbounds [101 x i8], [101 x i8]* %2, i64 0, i64 0
  call void @llvm.lifetime.start.p0i8(i64 101, i8* nonnull %4) #4
  %5 = call i32 (i8*, ...) bitcast (i32 (...)* @gets to i32 (i8*, ...)*)(i8* nonnull %3) #4
  br label %6

6:                                                ; preds = %20, %0
  %7 = phi i64 [ %23, %20 ], [ 0, %0 ]
  %8 = phi i32 [ %21, %20 ], [ 0, %0 ]
  %9 = phi i32 [ %22, %20 ], [ 1, %0 ]
  %10 = getelementptr inbounds [101 x i8], [101 x i8]* %1, i64 0, i64 %7
  %11 = load i8, i8* %10, align 1, !tbaa !5
  switch i8 %11, label %14 [
    i8 0, label %24
    i8 32, label %12
  ]

12:                                               ; preds = %6
  %13 = icmp eq i32 %9, 0
  br i1 %13, label %20, label %14

14:                                               ; preds = %12, %6
  %15 = phi i8 [ %11, %6 ], [ 32, %12 ]
  %16 = phi i32 [ 1, %6 ], [ 0, %12 ]
  %17 = sext i32 %8 to i64
  %18 = getelementptr inbounds [101 x i8], [101 x i8]* %2, i64 0, i64 %17
  store i8 %15, i8* %18, align 1, !tbaa !5
  %19 = add nsw i32 %8, 1
  br label %20

20:                                               ; preds = %14, %12
  %21 = phi i32 [ %8, %12 ], [ %19, %14 ]
  %22 = phi i32 [ 0, %12 ], [ %16, %14 ]
  %23 = add nuw i64 %7, 1
  br label %6, !llvm.loop !8

24:                                               ; preds = %6
  %25 = sext i32 %8 to i64
  %26 = getelementptr inbounds [101 x i8], [101 x i8]* %2, i64 0, i64 %25
  store i8 0, i8* %26, align 1, !tbaa !5
  %27 = call i32 (i8*, ...) @printf(i8* nonnull dereferenceable(1) getelementptr inbounds ([3 x i8], [3 x i8]* @.str, i64 0, i64 0), i8* nonnull %4)
  call void @llvm.lifetime.end.p0i8(i64 101, i8* nonnull %4) #4
  call void @llvm.lifetime.end.p0i8(i64 101, i8* nonnull %3) #4
  ret i32 0
}

; Function Attrs: argmemonly mustprogress nofree nosync nounwind willreturn
declare void @llvm.lifetime.start.p0i8(i64 immarg, i8* nocapture) #1

declare i32 @gets(...) local_unnamed_addr #2

; Function Attrs: nofree nounwind
declare noundef i32 @printf(i8* nocapture noundef readonly, ...) local_unnamed_addr #3

; Function Attrs: argmemonly mustprogress nofree nosync nounwind willreturn
declare void @llvm.lifetime.end.p0i8(i64 immarg, i8* nocapture) #1


!llvm.module.flags = !{!0, !1, !2, !3}
!llvm.ident = !{!4}

!0 = !{i32 1, !"wchar_size", i32 4}
!1 = !{i32 7, !"PIC Level", i32 2}
!2 = !{i32 7, !"PIE Level", i32 2}
!3 = !{i32 7, !"uwtable", i32 1}
!4 = !{!"clang version 13.0.0"}
!5 = !{!6, !6, i64 0}
!6 = !{!"omnipotent char", !7, i64 0}
!7 = !{!"Simple C/C++ TBAA"}
!8 = distinct !{!8, !9}
!9 = !{!"llvm.loop.mustprogress"}
